; Function Attrs: mustprogress uwtable
define noundef zeroext i1 @_ZN3g2o15SparseOptimizer16computeMarginalsERNS_17SparseBlockMatrixIN5Eigen6MatrixIdLin1ELin1ELi0ELin1ELin1EEEEERKSt6vectorISt4pairIiiESaIS9_EE(ptr nocapture noundef nonnull readonly align 8 dereferenceable(409) %0, ptr noundef nonnull align 1 %1, ptr noundef nonnull align 8 dereferenceable(24) %2) local_unnamed_addr #3 align 2 {
  %4 = getelementptr inbounds nuw i8, ptr %0, i64 376
  %5 = load ptr, ptr %4, align 8
  %6 = load ptr, ptr %5, align 8
  %7 = getelementptr inbounds i8, ptr %6, i64 32
  %8 = load ptr, ptr %7, align 8
  %9 = tail call noundef zeroext i1 %8(ptr noundef nonnull align 8 dereferenceable(64) %5, ptr noundef nonnull align 1 %1, ptr noundef nonnull align 8 dereferenceable(24) %2)
  ret i1 %9
}